target datalayout = "e-m:e-p270:32:32-p271:32:32-p272:64:64-i64:64-i128:128-f80:128-n8:16:32:64-S128"
target triple = "x86_64-pc-linux-gnu"

%struct.BackendGlobalData = type <{ ptr, ptr, i8, i8, i8, i8, i8, i8, i8, i8, i8, [3 x i8], i32, ptr, ptr, ptr, ptr, ptr, ptr, ptr, ptr, ptr, ptr, ptr, ptr, ptr, i32, %struct.jvmtiCapabilities, i8, [3 x i8], %struct.jvmtiEventCallbacks, ptr, ptr, ptr, ptr, ptr, ptr, ptr, i32, [4 x i8], ptr, i64, i32, [4 x i8], ptr, i32, i32, i8, i8, [6 x i8] }>
%struct.jvmtiCapabilities = type { i64, i64 }
%struct.jvmtiEventCallbacks = type { ptr, ptr, ptr, ptr, ptr, ptr, ptr, ptr, ptr, ptr, ptr, ptr, ptr, ptr, ptr, ptr, ptr, ptr, ptr, ptr, ptr, ptr, ptr, ptr, ptr, ptr, ptr, ptr, ptr, ptr, ptr, ptr, ptr, ptr, ptr, ptr, ptr, ptr, ptr }
%struct.RefNode = type { i64, ptr, ptr, i32, i8, i8 }
%struct.JNINativeInterface_ = type { ptr, ptr, ptr, ptr, ptr, ptr, ptr, ptr, ptr, ptr, ptr, ptr, ptr, ptr, ptr, ptr, ptr, ptr, ptr, ptr, ptr, ptr, ptr, ptr, ptr, ptr, ptr, ptr, ptr, ptr, ptr, ptr, ptr, ptr, ptr, ptr, ptr, ptr, ptr, ptr, ptr, ptr, ptr, ptr, ptr, ptr, ptr, ptr, ptr, ptr, ptr, ptr, ptr, ptr, ptr, ptr, ptr, ptr, ptr, ptr, ptr, ptr, ptr, ptr, ptr, ptr, ptr, ptr, ptr, ptr, ptr, ptr, ptr, ptr, ptr, ptr, ptr, ptr, ptr, ptr, ptr, ptr, ptr, ptr, ptr, ptr, ptr, ptr, ptr, ptr, ptr, ptr, ptr, ptr, ptr, ptr, ptr, ptr, ptr, ptr, ptr, ptr, ptr, ptr, ptr, ptr, ptr, ptr, ptr, ptr, ptr, ptr, ptr, ptr, ptr, ptr, ptr, ptr, ptr, ptr, ptr, ptr, ptr, ptr, ptr, ptr, ptr, ptr, ptr, ptr, ptr, ptr, ptr, ptr, ptr, ptr, ptr, ptr, ptr, ptr, ptr, ptr, ptr, ptr, ptr, ptr, ptr, ptr, ptr, ptr, ptr, ptr, ptr, ptr, ptr, ptr, ptr, ptr, ptr, ptr, ptr, ptr, ptr, ptr, ptr, ptr, ptr, ptr, ptr, ptr, ptr, ptr, ptr, ptr, ptr, ptr, ptr, ptr, ptr, ptr, ptr, ptr, ptr, ptr, ptr, ptr, ptr, ptr, ptr, ptr, ptr, ptr, ptr, ptr, ptr, ptr, ptr, ptr, ptr, ptr, ptr, ptr, ptr, ptr, ptr, ptr, ptr, ptr, ptr, ptr, ptr, ptr, ptr, ptr, ptr, ptr, ptr, ptr, ptr, ptr, ptr, ptr, ptr, ptr, ptr, ptr, ptr, ptr, ptr, ptr, ptr, ptr, ptr, ptr, ptr }

@gdata = external global ptr, align 8
@.str.1 = private unnamed_addr constant [4 x i8] c"JNI\00", align 1
@.str.2 = private unnamed_addr constant [52 x i8] c"src/jdk.jdwp.agent/share/native/libjdwp/commonRef.c\00", align 1
@.str.3 = private unnamed_addr constant [5 x i8] c"%s()\00", align 1
@.str.4 = private unnamed_addr constant [12 x i8] c"NewLocalRef\00", align 1
@.str.5 = private unnamed_addr constant [15 x i8] c"DeleteLocalRef\00", align 1
@stderr = external global ptr, align 8
@.str.6 = private unnamed_addr constant [17 x i8] c"JDWP exit error \00", align 1
@.str.7 = private unnamed_addr constant [2 x i8] c"\0A\00", align 1
@.str.8 = private unnamed_addr constant [19 x i8] c"%s(%d): %s [%s:%d]\00", align 1
@.str.18 = private unnamed_addr constant [18 x i8] c"RefNode count < 0\00", align 1

; Function Attrs: nounwind uwtable
define internal i32 @hashBucket(i64 noundef %0) #0 {
  %2 = alloca i64, align 8
  store i64 %0, ptr %2, align 8
  %3 = load i64, ptr %2, align 8
  %4 = trunc i64 %3 to i32
  %5 = load ptr, ptr @gdata, align 8
  %6 = getelementptr inbounds %struct.BackendGlobalData, ptr %5, i32 0, i32 45
  %7 = load i32, ptr %6, align 8
  %8 = sub nsw i32 %7, 1
  %9 = and i32 %4, %8
  ret i32 %9
}

; Function Attrs: nounwind uwtable
define internal void @deleteNodeByID(ptr noundef %0, i64 noundef %1, i32 noundef %2) #0 {
  %4 = alloca ptr, align 8
  %5 = alloca i64, align 8
  %6 = alloca i32, align 4
  %7 = alloca i32, align 4
  %8 = alloca ptr, align 8
  %9 = alloca ptr, align 8
  store ptr %0, ptr %4, align 8
  store i64 %1, ptr %5, align 8
  store i32 %2, ptr %6, align 4
  %10 = load i64, ptr %5, align 8
  %11 = call i32 @hashBucket(i64 noundef %10)
  store i32 %11, ptr %7, align 4
  %12 = load ptr, ptr @gdata, align 8
  %13 = getelementptr inbounds %struct.BackendGlobalData, ptr %12, i32 0, i32 44
  %14 = load ptr, ptr %13, align 8
  %15 = load i32, ptr %7, align 4
  %16 = sext i32 %15 to i64
  %17 = getelementptr inbounds ptr, ptr %14, i64 %16
  %18 = load ptr, ptr %17, align 8
  store ptr %18, ptr %8, align 8
  store ptr null, ptr %9, align 8
  br label %19

19:                                               ; preds = %76, %3
  %20 = load ptr, ptr %8, align 8
  %21 = icmp ne ptr %20, null
  br i1 %21, label %22, label %81

22:                                               ; preds = %19
  %23 = load i64, ptr %5, align 8
  %24 = load ptr, ptr %8, align 8
  %25 = getelementptr inbounds %struct.RefNode, ptr %24, i32 0, i32 0
  %26 = load i64, ptr %25, align 8
  %27 = icmp eq i64 %23, %26
  br i1 %27, label %28, label %76

28:                                               ; preds = %22
  %29 = load i32, ptr %6, align 4
  %30 = icmp ne i32 %29, -1
  br i1 %30, label %31, label %37

31:                                               ; preds = %28
  %32 = load i32, ptr %6, align 4
  %33 = load ptr, ptr %8, align 8
  %34 = getelementptr inbounds %struct.RefNode, ptr %33, i32 0, i32 3
  %35 = load i32, ptr %34, align 8
  %36 = sub nsw i32 %35, %32
  store i32 %36, ptr %34, align 8
  br label %40

37:                                               ; preds = %28
  %38 = load ptr, ptr %8, align 8
  %39 = getelementptr inbounds %struct.RefNode, ptr %38, i32 0, i32 3
  store i32 0, ptr %39, align 8
  br label %40

40:                                               ; preds = %37, %31
  %41 = load ptr, ptr %8, align 8
  %42 = getelementptr inbounds %struct.RefNode, ptr %41, i32 0, i32 3
  %43 = load i32, ptr %42, align 8
  %44 = icmp sle i32 %43, 0
  br i1 %44, label %45, label %75

45:                                               ; preds = %40
  %46 = load ptr, ptr %8, align 8
  %47 = getelementptr inbounds %struct.RefNode, ptr %46, i32 0, i32 3
  %48 = load i32, ptr %47, align 8
  %49 = icmp slt i32 %48, 0
  br i1 %49, label %50, label %53

50:                                               ; preds = %45
  %51 = load ptr, ptr @stderr, align 8
  %52 = call ptr @jvmtiErrorText(i32 noundef 181)
  call void (ptr, ptr, ptr, ptr, ...) @print_message(ptr noundef %51, ptr noundef @.str.6, ptr noundef @.str.7, ptr noundef @.str.8, ptr noundef %52, i32 noundef 181, ptr noundef @.str.18, ptr noundef @.str.2, i32 noundef 277)
  call void @debugInit_exit(i32 noundef 181, ptr noundef @.str.18)
  br label %53

53:                                               ; preds = %50, %45
  %54 = load ptr, ptr %9, align 8
  %55 = icmp eq ptr %54, null
  br i1 %55, label %56, label %66

56:                                               ; preds = %53
  %57 = load ptr, ptr %8, align 8
  %58 = getelementptr inbounds %struct.RefNode, ptr %57, i32 0, i32 2
  %59 = load ptr, ptr %58, align 8
  %60 = load ptr, ptr @gdata, align 8
  %61 = getelementptr inbounds %struct.BackendGlobalData, ptr %60, i32 0, i32 44
  %62 = load ptr, ptr %61, align 8
  %63 = load i32, ptr %7, align 4
  %64 = sext i32 %63 to i64
  %65 = getelementptr inbounds ptr, ptr %62, i64 %64
  store ptr %59, ptr %65, align 8
  br label %72

66:                                               ; preds = %53
  %67 = load ptr, ptr %8, align 8
  %68 = getelementptr inbounds %struct.RefNode, ptr %67, i32 0, i32 2
  %69 = load ptr, ptr %68, align 8
  %70 = load ptr, ptr %9, align 8
  %71 = getelementptr inbounds %struct.RefNode, ptr %70, i32 0, i32 2
  store ptr %69, ptr %71, align 8
  br label %72

72:                                               ; preds = %66, %56
  %73 = load ptr, ptr %4, align 8
  %74 = load ptr, ptr %8, align 8
  call void @deleteNode(ptr noundef %73, ptr noundef %74)
  br label %75

75:                                               ; preds = %72, %40
  br label %81

76:                                               ; preds = %22
  %77 = load ptr, ptr %8, align 8
  store ptr %77, ptr %9, align 8
  %78 = load ptr, ptr %8, align 8
  %79 = getelementptr inbounds %struct.RefNode, ptr %78, i32 0, i32 2
  %80 = load ptr, ptr %79, align 8
  store ptr %80, ptr %8, align 8
  br label %19, !llvm.loop !12

81:                                               ; preds = %75, %19
  ret void
}

; Function Attrs: nounwind uwtable
define internal zeroext i8 @isStrong(ptr noundef %0) #0 {
  %2 = alloca ptr, align 8
  store ptr %0, ptr %2, align 8
  %3 = load ptr, ptr %2, align 8
  %4 = getelementptr inbounds %struct.RefNode, ptr %3, i32 0, i32 4
  %5 = load i8, ptr %4, align 4
  %6 = zext i8 %5 to i32
  %7 = icmp ne i32 %6, 0
  br i1 %7, label %14, label %8

8:                                                ; preds = %1
  %9 = load ptr, ptr %2, align 8
  %10 = getelementptr inbounds %struct.RefNode, ptr %9, i32 0, i32 5
  %11 = load i8, ptr %10, align 1
  %12 = zext i8 %11 to i32
  %13 = icmp ne i32 %12, 0
  br label %14

14:                                               ; preds = %8, %1
  %15 = phi i1 [ true, %1 ], [ %13, %8 ]
  %16 = zext i1 %15 to i32
  %17 = trunc i32 %16 to i8
  ret i8 %17
}

; Function Attrs: nounwind uwtable
define internal ptr @findNodeByID(ptr noundef %0, i64 noundef %1) #0 {
  %3 = alloca ptr, align 8
  %4 = alloca i64, align 8
  %5 = alloca i32, align 4
  %6 = alloca ptr, align 8
  %7 = alloca ptr, align 8
  store ptr %0, ptr %3, align 8
  store i64 %1, ptr %4, align 8
  %8 = load i64, ptr %4, align 8
  %9 = call i32 @hashBucket(i64 noundef %8)
  store i32 %9, ptr %5, align 4
  %10 = load ptr, ptr @gdata, align 8
  %11 = getelementptr inbounds %struct.BackendGlobalData, ptr %10, i32 0, i32 44
  %12 = load ptr, ptr %11, align 8
  %13 = load i32, ptr %5, align 4
  %14 = sext i32 %13 to i64
  %15 = getelementptr inbounds ptr, ptr %12, i64 %14
  %16 = load ptr, ptr %15, align 8
  store ptr %16, ptr %6, align 8
  store ptr null, ptr %7, align 8
  br label %17

17:                                               ; preds = %52, %2
  %18 = load ptr, ptr %6, align 8
  %19 = icmp ne ptr %18, null
  br i1 %19, label %20, label %56

20:                                               ; preds = %17
  %21 = load i64, ptr %4, align 8
  %22 = load ptr, ptr %6, align 8
  %23 = getelementptr inbounds %struct.RefNode, ptr %22, i32 0, i32 0
  %24 = load i64, ptr %23, align 8
  %25 = icmp eq i64 %21, %24
  br i1 %25, label %26, label %52

26:                                               ; preds = %20
  %27 = load ptr, ptr %7, align 8
  %28 = icmp ne ptr %27, null
  br i1 %28, label %29, label %51

29:                                               ; preds = %26
  %30 = load ptr, ptr %6, align 8
  %31 = getelementptr inbounds %struct.RefNode, ptr %30, i32 0, i32 2
  %32 = load ptr, ptr %31, align 8
  %33 = load ptr, ptr %7, align 8
  %34 = getelementptr inbounds %struct.RefNode, ptr %33, i32 0, i32 2
  store ptr %32, ptr %34, align 8
  %35 = load ptr, ptr @gdata, align 8
  %36 = getelementptr inbounds %struct.BackendGlobalData, ptr %35, i32 0, i32 44
  %37 = load ptr, ptr %36, align 8
  %38 = load i32, ptr %5, align 4
  %39 = sext i32 %38 to i64
  %40 = getelementptr inbounds ptr, ptr %37, i64 %39
  %41 = load ptr, ptr %40, align 8
  %42 = load ptr, ptr %6, align 8
  %43 = getelementptr inbounds %struct.RefNode, ptr %42, i32 0, i32 2
  store ptr %41, ptr %43, align 8
  %44 = load ptr, ptr %6, align 8
  %45 = load ptr, ptr @gdata, align 8
  %46 = getelementptr inbounds %struct.BackendGlobalData, ptr %45, i32 0, i32 44
  %47 = load ptr, ptr %46, align 8
  %48 = load i32, ptr %5, align 4
  %49 = sext i32 %48 to i64
  %50 = getelementptr inbounds ptr, ptr %47, i64 %49
  store ptr %44, ptr %50, align 8
  br label %51

51:                                               ; preds = %29, %26
  br label %56

52:                                               ; preds = %20
  %53 = load ptr, ptr %6, align 8
  %54 = getelementptr inbounds %struct.RefNode, ptr %53, i32 0, i32 2
  %55 = load ptr, ptr %54, align 8
  store ptr %55, ptr %6, align 8
  br label %17, !llvm.loop !11

56:                                               ; preds = %51, %17
  %57 = load ptr, ptr %6, align 8
  ret ptr %57
}

; Function Attrs: nounwind uwtable
define hidden ptr @commonRef_idToRef(ptr noundef %0, i64 noundef %1) #0 {
  %3 = alloca ptr, align 8
  %4 = alloca i64, align 8
  %5 = alloca ptr, align 8
  %6 = alloca ptr, align 8
  %7 = alloca ptr, align 8
  store ptr %0, ptr %3, align 8
  store i64 %1, ptr %4, align 8
  store ptr null, ptr %5, align 8
  %8 = load ptr, ptr @gdata, align 8
  %9 = getelementptr inbounds %struct.BackendGlobalData, ptr %8, i32 0, i32 40
  %10 = load ptr, ptr %9, align 8
  call void @debugMonitorEnter(ptr noundef %10)
  %11 = load ptr, ptr %3, align 8
  %12 = load i64, ptr %4, align 8
  %13 = call ptr @findNodeByID(ptr noundef %11, i64 noundef %12)
  store ptr %13, ptr %6, align 8
  %14 = load ptr, ptr %6, align 8
  %15 = icmp ne ptr %14, null
  br i1 %15, label %16, label %71

16:                                               ; preds = %2
  %17 = load ptr, ptr %6, align 8
  %18 = call zeroext i8 @isStrong(ptr noundef %17)
  %19 = icmp ne i8 %18, 0
  br i1 %19, label %20, label %25

20:                                               ; preds = %16
  %21 = load ptr, ptr %3, align 8
  %22 = load ptr, ptr %6, align 8
  %23 = getelementptr inbounds %struct.RefNode, ptr %22, i32 0, i32 1
  %24 = load ptr, ptr %23, align 8
  call void @saveGlobalRef(ptr noundef %21, ptr noundef %24, ptr noundef %5)
  br label %70

25:                                               ; preds = %16
  %26 = load ptr, ptr @gdata, align 8
  %27 = getelementptr inbounds %struct.BackendGlobalData, ptr %26, i32 0, i32 38
  %28 = load i32, ptr %27, align 8
  %29 = and i32 %28, 2
  %30 = icmp ne i32 %29, 0
  br i1 %30, label %31, label %32

31:                                               ; preds = %25
  call void @log_message_begin(ptr noundef @.str.1, ptr noundef @.str.2, i32 noundef 496)
  call void (ptr, ...) @log_message_end(ptr noundef @.str.3, ptr noundef @.str.4)
  br label %33

32:                                               ; preds = %25
  br label %33

33:                                               ; preds = %32, %31
  %34 = load ptr, ptr %3, align 8
  %35 = load ptr, ptr %34, align 8
  %36 = getelementptr inbounds %struct.JNINativeInterface_, ptr %35, i32 0, i32 25
  %37 = load ptr, ptr %36, align 8
  %38 = load ptr, ptr %3, align 8
  %39 = load ptr, ptr %6, align 8
  %40 = getelementptr inbounds %struct.RefNode, ptr %39, i32 0, i32 1
  %41 = load ptr, ptr %40, align 8
  %42 = call ptr %37(ptr noundef %38, ptr noundef %41)
  store ptr %42, ptr %7, align 8
  %43 = load ptr, ptr %7, align 8
  %44 = icmp eq ptr %43, null
  br i1 %44, label %45, label %50

45:                                               ; preds = %33
  %46 = load ptr, ptr %3, align 8
  %47 = load ptr, ptr %6, align 8
  %48 = getelementptr inbounds %struct.RefNode, ptr %47, i32 0, i32 0
  %49 = load i64, ptr %48, align 8
  call void @deleteNodeByID(ptr noundef %46, i64 noundef %49, i32 noundef -1)
  br label %69

50:                                               ; preds = %33
  %51 = load ptr, ptr %3, align 8
  %52 = load ptr, ptr %6, align 8
  %53 = getelementptr inbounds %struct.RefNode, ptr %52, i32 0, i32 1
  %54 = load ptr, ptr %53, align 8
  call void @saveGlobalRef(ptr noundef %51, ptr noundef %54, ptr noundef %5)
  %55 = load ptr, ptr @gdata, align 8
  %56 = getelementptr inbounds %struct.BackendGlobalData, ptr %55, i32 0, i32 38
  %57 = load i32, ptr %56, align 8
  %58 = and i32 %57, 2
  %59 = icmp ne i32 %58, 0
  br i1 %59, label %60, label %61

60:                                               ; preds = %50
  call void @log_message_begin(ptr noundef @.str.1, ptr noundef @.str.2, i32 noundef 503)
  call void (ptr, ...) @log_message_end(ptr noundef @.str.3, ptr noundef @.str.5)
  br label %62

61:                                               ; preds = %50
  br label %62

62:                                               ; preds = %61, %60
  %63 = load ptr, ptr %3, align 8
  %64 = load ptr, ptr %63, align 8
  %65 = getelementptr inbounds %struct.JNINativeInterface_, ptr %64, i32 0, i32 23
  %66 = load ptr, ptr %65, align 8
  %67 = load ptr, ptr %3, align 8
  %68 = load ptr, ptr %7, align 8
  call void %66(ptr noundef %67, ptr noundef %68)
  br label %69

69:                                               ; preds = %62, %45
  br label %70

70:                                               ; preds = %69, %20
  br label %71

71:                                               ; preds = %70, %2
  %72 = load ptr, ptr @gdata, align 8
  %73 = getelementptr inbounds %struct.BackendGlobalData, ptr %72, i32 0, i32 40
  %74 = load ptr, ptr %73, align 8
  call void @debugMonitorExit(ptr noundef %74)
  %75 = load ptr, ptr %5, align 8
  ret ptr %75
}