; Function Attrs: nounwind uwtable
define hidden ptr @commonRef_idToRef(ptr noundef %0, i64 noundef %1) local_unnamed_addr #0 {
  %3 = alloca ptr, align 8
  store ptr null, ptr %3, align 8
  %4 = load ptr, ptr @gdata, align 8
  %5 = getelementptr inbounds i8, ptr %4, i64 536
  %6 = load ptr, ptr %5, align 8
  tail call void @debugMonitorEnter(ptr noundef %6) #5
  %7 = trunc i64 %1 to i32
  %8 = load ptr, ptr @gdata, align 8
  %9 = getelementptr inbounds i8, ptr %8, i64 568
  %10 = load i32, ptr %9, align 8
  %11 = add nsw i32 %10, -1
  %12 = and i32 %11, %7
  %13 = getelementptr inbounds i8, ptr %8, i64 560
  %14 = load ptr, ptr %13, align 8
  %15 = sext i32 %12 to i64
  %16 = getelementptr inbounds ptr, ptr %14, i64 %15
  %.01.i = load ptr, ptr %16, align 8
  %.not2.i = icmp eq ptr %.01.i, null
  br i1 %.not2.i, label %deleteNodeByID.exit, label %.lr.ph.i

.lr.ph.i:                                         ; preds = %2, %19
  %.03.i = phi ptr [ %.0.i, %19 ], [ %.01.i, %2 ]
  %17 = load i64, ptr %.03.i, align 8
  %18 = icmp eq i64 %17, %1
  br i1 %18, label %findNodeByID.exit, label %19

19:                                               ; preds = %.lr.ph.i
  %20 = getelementptr inbounds i8, ptr %.03.i, i64 16
  %.0.i = load ptr, ptr %20, align 8
  %.not.i = icmp eq ptr %.0.i, null
  br i1 %.not.i, label %deleteNodeByID.exit, label %.lr.ph.i, !llvm.loop !11

findNodeByID.exit:                                ; preds = %.lr.ph.i
  %21 = getelementptr inbounds i8, ptr %.03.i, i64 28
  %22 = load i8, ptr %21, align 4
  %.not.i20 = icmp eq i8 %22, 0
  br i1 %.not.i20, label %isStrong.exit, label %isStrong.exit.thread

isStrong.exit:                                    ; preds = %findNodeByID.exit
  %23 = getelementptr inbounds i8, ptr %.03.i, i64 29
  %24 = load i8, ptr %23, align 1
  %.not = icmp eq i8 %24, 0
  br i1 %.not, label %27, label %isStrong.exit.thread

isStrong.exit.thread:                             ; preds = %findNodeByID.exit, %isStrong.exit
  %25 = getelementptr inbounds i8, ptr %.03.i, i64 8
  %26 = load ptr, ptr %25, align 8
  call void @saveGlobalRef(ptr noundef %0, ptr noundef %26, ptr noundef nonnull %3) #5
  br label %deleteNodeByID.exit

27:                                               ; preds = %isStrong.exit
  %28 = getelementptr inbounds i8, ptr %8, i64 528
  %29 = load i32, ptr %28, align 8
  %30 = and i32 %29, 2
  %.not18 = icmp eq i32 %30, 0
  br i1 %.not18, label %32, label %31

31:                                               ; preds = %27
  tail call void @log_message_begin(ptr noundef nonnull @.str.1, ptr noundef nonnull @.str.2, i32 noundef 496) #5
  tail call void (ptr, ...) @log_message_end(ptr noundef nonnull @.str.3, ptr noundef nonnull @.str.4) #5
  br label %32

32:                                               ; preds = %27, %31
  %33 = load ptr, ptr %0, align 8
  %34 = getelementptr inbounds i8, ptr %33, i64 200
  %35 = load ptr, ptr %34, align 8
  %36 = getelementptr inbounds i8, ptr %.03.i, i64 8
  %37 = load ptr, ptr %36, align 8
  %38 = tail call ptr %35(ptr noundef nonnull %0, ptr noundef %37) #5
  %39 = icmp eq ptr %38, null
  br i1 %39, label %40, label %66

40:                                               ; preds = %32
  %41 = load i64, ptr %.03.i, align 8
  %42 = trunc i64 %41 to i32
  %43 = load ptr, ptr @gdata, align 8
  %44 = getelementptr inbounds i8, ptr %43, i64 568
  %45 = load i32, ptr %44, align 8
  %46 = add nsw i32 %45, -1
  %47 = and i32 %46, %42
  %48 = getelementptr inbounds i8, ptr %43, i64 560
  %49 = load ptr, ptr %48, align 8
  %50 = sext i32 %47 to i64
  %51 = getelementptr inbounds ptr, ptr %49, i64 %50
  %.01925.i = load ptr, ptr %51, align 8
  %.not26.i = icmp eq ptr %.01925.i, null
  br i1 %.not26.i, label %deleteNodeByID.exit, label %.lr.ph.i21.preheader

.lr.ph.i21.preheader:                             ; preds = %40
  %52 = load i64, ptr %.01925.i, align 8
  %53 = icmp eq i64 %52, %41
  br i1 %53, label %56, label %.lr.ph

.lr.ph.i21:                                       ; preds = %.lr.ph
  %54 = load i64, ptr %.019.i, align 8
  %55 = icmp eq i64 %54, %41
  br i1 %55, label %60, label %.lr.ph, !llvm.loop !12

56:                                               ; preds = %.lr.ph.i21.preheader
  %57 = getelementptr inbounds i8, ptr %.01925.i, i64 24
  store i32 0, ptr %57, align 8
  %58 = load ptr, ptr %48, align 8
  %59 = getelementptr inbounds ptr, ptr %58, i64 %50
  br label %63

60:                                               ; preds = %.lr.ph.i21
  %61 = getelementptr inbounds i8, ptr %.019.i, i64 24
  store i32 0, ptr %61, align 8
  %62 = getelementptr inbounds i8, ptr %.01928.i30, i64 16
  br label %63

63:                                               ; preds = %60, %56
  %.01928.i.lcssa38 = phi ptr [ %.019.i, %60 ], [ %.01925.i, %56 ]
  %.sink.i = phi ptr [ %62, %60 ], [ %59, %56 ]
  %.in = getelementptr inbounds i8, ptr %.01928.i.lcssa38, i64 16
  %64 = load ptr, ptr %.in, align 8
  store ptr %64, ptr %.sink.i, align 8
  tail call fastcc void @deleteNode(ptr noundef nonnull %0, ptr noundef nonnull %.01928.i.lcssa38)
  br label %deleteNodeByID.exit

.lr.ph:                                           ; preds = %.lr.ph.i21.preheader, %.lr.ph.i21
  %.01928.i30 = phi ptr [ %.019.i, %.lr.ph.i21 ], [ %.01925.i, %.lr.ph.i21.preheader ]
  %65 = getelementptr inbounds i8, ptr %.01928.i30, i64 16
  %.019.i = load ptr, ptr %65, align 8
  %.not.i22 = icmp eq ptr %.019.i, null
  br i1 %.not.i22, label %deleteNodeByID.exit, label %.lr.ph.i21, !llvm.loop !12

66:                                               ; preds = %32
  %67 = load ptr, ptr %36, align 8
  call void @saveGlobalRef(ptr noundef nonnull %0, ptr noundef %67, ptr noundef nonnull %3) #5
  %68 = load ptr, ptr @gdata, align 8
  %69 = getelementptr inbounds i8, ptr %68, i64 528
  %70 = load i32, ptr %69, align 8
  %71 = and i32 %70, 2
  %.not19 = icmp eq i32 %71, 0
  br i1 %.not19, label %73, label %72

72:                                               ; preds = %66
  call void @log_message_begin(ptr noundef nonnull @.str.1, ptr noundef nonnull @.str.2, i32 noundef 503) #5
  call void (ptr, ...) @log_message_end(ptr noundef nonnull @.str.3, ptr noundef nonnull @.str.5) #5
  br label %73

73:                                               ; preds = %66, %72
  %74 = load ptr, ptr %0, align 8
  %75 = getelementptr inbounds i8, ptr %74, i64 184
  %76 = load ptr, ptr %75, align 8
  call void %76(ptr noundef nonnull %0, ptr noundef nonnull %38) #5
  br label %deleteNodeByID.exit

deleteNodeByID.exit:                              ; preds = %19, %.lr.ph, %2, %63, %40, %isStrong.exit.thread, %73
  %77 = load ptr, ptr @gdata, align 8
  %78 = getelementptr inbounds i8, ptr %77, i64 536
  %79 = load ptr, ptr %78, align 8
  call void @debugMonitorExit(ptr noundef %79) #5
  %80 = load ptr, ptr %3, align 8
  ret ptr %80
}